target datalayout = "e-m:e-p270:32:32-p271:32:32-p272:64:64-i64:64-i128:128-f80:128-n8:16:32:64-S128"
target triple = "x86_64-pc-linux-gnu"

%"class.cv::gapi::python::GPythonKernel" = type <{ %"class.std::function", %"class.std::function.0", i8, [7 x i8] }>
%"class.std::function" = type { %"class.std::_Function_base", ptr }
%"class.std::_Function_base" = type { %"union.std::_Any_data", ptr }
%"union.std::_Any_data" = type { %"union.std::_Nocopy_types" }
%"union.std::_Nocopy_types" = type { { i64, i64 } }
%"class.std::function.0" = type { %"class.std::_Function_base", ptr }
%"struct.(anonymous namespace)::PythonUnit" = type { %"class.cv::gapi::python::GPythonKernel" }
%"struct.ade::details::Metadata::MetadataHolder" = type { %"struct.ade::details::Metadata::MetadataHolderBase", %"struct.(anonymous namespace)::PythonUnit" }
%"struct.ade::details::Metadata::MetadataHolderBase" = type { ptr }

; Function Attrs: mustprogress nounwind uwtable
define linkonce_odr hidden void @_ZNSt14_Function_baseD2Ev(ptr noundef nonnull align 8 dereferenceable(24) %0) unnamed_addr #5 comdat align 2 personality ptr @__gxx_personality_v0 {
  %2 = alloca ptr, align 8
  store ptr %0, ptr %2, align 8
  %3 = load ptr, ptr %2, align 8
  %4 = getelementptr inbounds %"class.std::_Function_base", ptr %3, i32 0, i32 1
  %5 = load ptr, ptr %4, align 8
  %6 = icmp ne ptr %5, null
  br i1 %6, label %7, label %14

7:                                                ; preds = %1
  %8 = getelementptr inbounds %"class.std::_Function_base", ptr %3, i32 0, i32 1
  %9 = load ptr, ptr %8, align 8
  %10 = getelementptr inbounds %"class.std::_Function_base", ptr %3, i32 0, i32 0
  %11 = getelementptr inbounds %"class.std::_Function_base", ptr %3, i32 0, i32 0
  %12 = invoke noundef zeroext i1 %9(ptr noundef nonnull align 8 dereferenceable(16) %10, ptr noundef nonnull align 8 dereferenceable(16) %11, i32 noundef 3)
          to label %13 unwind label %15

13:                                               ; preds = %7
  br label %14

14:                                               ; preds = %13, %1
  ret void

15:                                               ; preds = %7
  %16 = landingpad { ptr, i32 }
          catch ptr null
  %17 = extractvalue { ptr, i32 } %16, 0
  call void @__clang_call_terminate(ptr %17) #19
  unreachable
}

; Function Attrs: mustprogress nounwind uwtable
define linkonce_odr hidden void @_ZNSt8functionIFSt6vectorIN2cv7GRunArgESaIS2_EERKNS1_4gapi6python14GPythonContextEEED2Ev(ptr noundef nonnull align 8 dereferenceable(32) %0) unnamed_addr #5 comdat align 2 {
  %2 = alloca ptr, align 8
  store ptr %0, ptr %2, align 8
  %3 = load ptr, ptr %2, align 8
  call void @_ZNSt14_Function_baseD2Ev(ptr noundef nonnull align 8 dereferenceable(24) %3) #3
  ret void
}

; Function Attrs: mustprogress nounwind uwtable
define linkonce_odr hidden void @_ZNSt8functionIFN2cv4GArgERKSt6vectorINS0_4util7variantIJNS3_9monostateENS0_8GMatDescENS0_11GScalarDescENS0_10GArrayDescENS0_11GOpaqueDescENS0_10GFrameDescEEEESaISB_EERKS2_IS1_SaIS1_EEEED2Ev(ptr noundef nonnull align 8 dereferenceable(32) %0) unnamed_addr #5 comdat align 2 {
  %2 = alloca ptr, align 8
  store ptr %0, ptr %2, align 8
  %3 = load ptr, ptr %2, align 8
  call void @_ZNSt14_Function_baseD2Ev(ptr noundef nonnull align 8 dereferenceable(24) %3) #3
  ret void
}

; Function Attrs: mustprogress nounwind uwtable
define linkonce_odr hidden void @_ZN2cv4gapi6python13GPythonKernelD2Ev(ptr noundef nonnull align 8 dereferenceable(65) %0) unnamed_addr #5 comdat align 2 {
  %2 = alloca ptr, align 8
  store ptr %0, ptr %2, align 8
  %3 = load ptr, ptr %2, align 8
  %4 = getelementptr inbounds %"class.cv::gapi::python::GPythonKernel", ptr %3, i32 0, i32 1
  call void @_ZNSt8functionIFN2cv4GArgERKSt6vectorINS0_4util7variantIJNS3_9monostateENS0_8GMatDescENS0_11GScalarDescENS0_10GArrayDescENS0_11GOpaqueDescENS0_10GFrameDescEEEESaISB_EERKS2_IS1_SaIS1_EEEED2Ev(ptr noundef nonnull align 8 dereferenceable(32) %4) #3
  %5 = getelementptr inbounds %"class.cv::gapi::python::GPythonKernel", ptr %3, i32 0, i32 0
  call void @_ZNSt8functionIFSt6vectorIN2cv7GRunArgESaIS2_EERKNS1_4gapi6python14GPythonContextEEED2Ev(ptr noundef nonnull align 8 dereferenceable(32) %5) #3
  ret void
}

; Function Attrs: mustprogress nounwind uwtable
define linkonce_odr hidden void @_ZN3ade7details8Metadata18MetadataHolderBaseD2Ev(ptr noundef nonnull align 8 dereferenceable(8) %0) unnamed_addr #5 comdat align 2 {
  %2 = alloca ptr, align 8
  store ptr %0, ptr %2, align 8
  ret void
}

; Function Attrs: mustprogress nounwind uwtable
define internal void @_ZN12_GLOBAL__N_110PythonUnitD2Ev(ptr noundef nonnull align 8 dereferenceable(72) %0) unnamed_addr #5 align 2 {
  %2 = alloca ptr, align 8
  store ptr %0, ptr %2, align 8
  %3 = load ptr, ptr %2, align 8
  %4 = getelementptr inbounds %"struct.(anonymous namespace)::PythonUnit", ptr %3, i32 0, i32 0
  call void @_ZN2cv4gapi6python13GPythonKernelD2Ev(ptr noundef nonnull align 8 dereferenceable(65) %4) #3
  ret void
}

; Function Attrs: mustprogress nounwind uwtable
define internal void @_ZN3ade7details8Metadata14MetadataHolderIN12_GLOBAL__N_110PythonUnitEED2Ev(ptr noundef nonnull align 8 dereferenceable(80) %0) unnamed_addr #5 align 2 {
  %2 = alloca ptr, align 8
  store ptr %0, ptr %2, align 8
  %3 = load ptr, ptr %2, align 8
  store ptr getelementptr inbounds inrange(-16, 24) ({ [5 x ptr] }, ptr @_ZTVN3ade7details8Metadata14MetadataHolderIN12_GLOBAL__N_110PythonUnitEEE, i32 0, i32 0, i32 2), ptr %3, align 8
  %4 = getelementptr inbounds %"struct.ade::details::Metadata::MetadataHolder", ptr %3, i32 0, i32 1
  call void @_ZN12_GLOBAL__N_110PythonUnitD2Ev(ptr noundef nonnull align 8 dereferenceable(72) %4) #3
  call void @_ZN3ade7details8Metadata18MetadataHolderBaseD2Ev(ptr noundef nonnull align 8 dereferenceable(8) %3) #3
  ret void
}

; Function Attrs: mustprogress nounwind uwtable
define internal void @_ZN3ade7details8Metadata14MetadataHolderIN12_GLOBAL__N_110PythonUnitEED0Ev(ptr noundef nonnull align 8 dereferenceable(80) %0) unnamed_addr #5 align 2 {
  %2 = alloca ptr, align 8
  store ptr %0, ptr %2, align 8
  %3 = load ptr, ptr %2, align 8
  call void @_ZN3ade7details8Metadata14MetadataHolderIN12_GLOBAL__N_110PythonUnitEED2Ev(ptr noundef nonnull align 8 dereferenceable(80) %3) #3
  call void @_ZdlPv(ptr noundef %3) #18
  ret void
}